target datalayout = "e-m:e-p270:32:32-p271:32:32-p272:64:64-i64:64-i128:128-f80:128-n8:16:32:64-S128"
target triple = "x86_64-unknown-linux-gnu"

%"struct.google::protobuf::Metadata" = type { ptr, ptr }

; Function Attrs: mustprogress nounwind uwtable
define linkonce_odr hidden noundef nonnull align 8 dereferenceable(16) ptr @_ZN6google8protobuf8internal8DownCastIRKNS1_14RawMessageBaseEKNS0_7MessageEEET_RT0_(ptr noundef nonnull align 8 dereferenceable(16) %f) #5 comdat {
entry:
  %f.addr = alloca ptr, align 8
  store ptr %f, ptr %f.addr, align 8
  %0 = load ptr, ptr %f.addr, align 8
  ret ptr %0
}

; Function Attrs: mustprogress uwtable
define linkonce_odr hidden noundef ptr @_ZNK6google8protobuf7Message13GetReflectionEv(ptr noundef nonnull align 8 dereferenceable(16) %this) #4 comdat align 2 {
entry:
  %this.addr = alloca ptr, align 8
  %ref.tmp = alloca %"struct.google::protobuf::Metadata", align 8
  store ptr %this, ptr %this.addr, align 8
  %this1 = load ptr, ptr %this.addr, align 8
  %vtable = load ptr, ptr %this1, align 8
  %vfn = getelementptr inbounds ptr, ptr %vtable, i64 10
  %0 = load ptr, ptr %vfn, align 8
  %call = call { ptr, ptr } %0(ptr noundef nonnull align 8 dereferenceable(16) %this1)
  %1 = getelementptr inbounds { ptr, ptr }, ptr %ref.tmp, i32 0, i32 0
  %2 = extractvalue { ptr, ptr } %call, 0
  store ptr %2, ptr %1, align 8
  %3 = getelementptr inbounds { ptr, ptr }, ptr %ref.tmp, i32 0, i32 1
  %4 = extractvalue { ptr, ptr } %call, 1
  store ptr %4, ptr %3, align 8
  %reflection = getelementptr inbounds %"struct.google::protobuf::Metadata", ptr %ref.tmp, i32 0, i32 1
  %5 = load ptr, ptr %reflection, align 8
  ret ptr %5
}

; Function Attrs: mustprogress uwtable
define noundef i64 @_ZNK6google8protobuf7Message13SpaceUsedLongEv(ptr noundef nonnull align 8 dereferenceable(16) %this) #4 align 2 {
entry:
  %retval = alloca i64, align 8
  %this.addr = alloca ptr, align 8
  %reflection = alloca ptr, align 8
  store ptr %this, ptr %this.addr, align 8
  %this1 = load ptr, ptr %this.addr, align 8
  %call = call noundef ptr @_ZNK6google8protobuf7Message13GetReflectionEv(ptr noundef nonnull align 8 dereferenceable(16) %this1)
  store ptr %call, ptr %reflection, align 8
  %0 = load ptr, ptr %reflection, align 8
  %cmp = icmp ne ptr %0, null
  br i1 %cmp, label %if.then, label %if.end

if.then:                                          ; preds = %entry
  %1 = load ptr, ptr %reflection, align 8
  %call2 = call noundef i64 @_ZNK6google8protobuf10Reflection13SpaceUsedLongERKNS0_7MessageE(ptr noundef nonnull align 8 dereferenceable(112) %1, ptr noundef nonnull align 8 dereferenceable(16) %this1)
  store i64 %call2, ptr %retval, align 8
  br label %return

if.end:                                           ; preds = %entry
  %call3 = call noundef nonnull align 8 dereferenceable(16) ptr @_ZN6google8protobuf8internal8DownCastIRKNS1_14RawMessageBaseEKNS0_7MessageEEET_RT0_(ptr noundef nonnull align 8 dereferenceable(16) %this1)
  %vtable = load ptr, ptr %call3, align 8
  %vfn = getelementptr inbounds ptr, ptr %vtable, i64 11
  %2 = load ptr, ptr %vfn, align 8
  %call4 = call noundef i64 %2(ptr noundef nonnull align 8 dereferenceable(16) %call3)
  store i64 %call4, ptr %retval, align 8
  br label %return

return:                                           ; preds = %if.end, %if.then
  %3 = load i64, ptr %retval, align 8
  ret i64 %3
}