; Function Attrs: mustprogress uwtable
define noundef i64 @_ZNK6google8protobuf7Message13SpaceUsedLongEv(ptr noundef nonnull align 8 dereferenceable(16) %this) local_unnamed_addr #3 align 2 {
entry:
  %vtable.i = load ptr, ptr %this, align 8
  %vfn.i = getelementptr inbounds i8, ptr %vtable.i, i64 80
  %0 = load ptr, ptr %vfn.i, align 8
  %call.i = tail call { ptr, ptr } %0(ptr noundef nonnull align 8 dereferenceable(16) %this)
  %1 = extractvalue { ptr, ptr } %call.i, 1
  %cmp.not = icmp eq ptr %1, null
  br i1 %cmp.not, label %if.end, label %if.then

if.then:                                          ; preds = %entry
  %call2 = tail call noundef i64 @_ZNK6google8protobuf10Reflection13SpaceUsedLongERKNS0_7MessageE(ptr noundef nonnull align 8 dereferenceable(112) %1, ptr noundef nonnull align 8 dereferenceable(16) %this)
  br label %return

if.end:                                           ; preds = %entry
  %vtable = load ptr, ptr %this, align 8
  %vfn = getelementptr inbounds i8, ptr %vtable, i64 88
  %2 = load ptr, ptr %vfn, align 8
  %call4 = tail call noundef i64 %2(ptr noundef nonnull align 8 dereferenceable(16) %this)
  br label %return

return:                                           ; preds = %if.end, %if.then
  %retval.0 = phi i64 [ %call2, %if.then ], [ %call4, %if.end ]
  ret i64 %retval.0
}